((dp1
S'remoteWaypoints'
p2
(lp3
(dp4
S'latitude'
p5
S'52.223657'
p6
sS'altitude'
p7
I51
sS'type'
p8
I222
sS'longitude'
p9
S'6.905303'
p10
sS'title'
p11
S'test'
p12
sa(dp13
g5
S'52.174810'
p14
sg7
I51
sg8
I1
sg9
S'6.834910'
p15
sg11
S'tst26'
p16
sa(dp17
g5
S'52.176740'
p18
sg7
I51
sg8
I1
sg9
S'6.830130'
p19
sg11
S'tst27'
p20
sa(dp21
g5
S'52.176670'
p22
sg7
I51
sg8
I1
sg9
S'6.829970'
p23
sg11
S'tst28a'
p24
sascdatetime
datetime
p25
(S'\x07\xd7\x08\n\x02\x16\x18\t\xcb\xd0'
tRp26
t.